target datalayout = "e-m:e-p270:32:32-p271:32:32-p272:64:64-i64:64-i128:128-f80:128-n8:16:32:64-S128"
target triple = "x86_64-pc-linux-gnu"

%struct._connParams = type { ptr, ptr, ptr, ptr, i32, ptr }

@.str.10 = private unnamed_addr constant [9 x i8] c"postgres\00", align 1
@.str.11 = private unnamed_addr constant [10 x i8] c"template1\00", align 1

; Function Attrs: nounwind uwtable
define dso_local ptr @connectMaintenanceDatabase(ptr noundef %0, ptr noundef %1, i1 noundef zeroext %2) #0 {
  %4 = alloca ptr, align 8
  %5 = alloca ptr, align 8
  %6 = alloca ptr, align 8
  %7 = alloca i8, align 1
  %8 = alloca ptr, align 8
  %9 = alloca i32, align 4
  store ptr %0, ptr %5, align 8
  store ptr %1, ptr %6, align 8
  %10 = zext i1 %2 to i8
  store i8 %10, ptr %7, align 1
  call void @llvm.lifetime.start.p0(i64 8, ptr %8) #5
  %11 = load ptr, ptr %5, align 8
  %12 = getelementptr inbounds nuw %struct._connParams, ptr %11, i32 0, i32 0
  %13 = load ptr, ptr %12, align 8
  %14 = icmp ne ptr %13, null
  br i1 %14, label %15, label %21

15:                                               ; preds = %3
  %16 = load ptr, ptr %5, align 8
  %17 = load ptr, ptr %6, align 8
  %18 = load i8, ptr %7, align 1, !range !4, !noundef !5
  %19 = trunc i8 %18 to i1
  %20 = call ptr @connectDatabase(ptr noundef %16, ptr noundef %17, i1 noundef zeroext %19, i1 noundef zeroext false, i1 noundef zeroext false)
  store ptr %20, ptr %4, align 8
  store i32 1, ptr %9, align 4
  br label %41

21:                                               ; preds = %3
  %22 = load ptr, ptr %5, align 8
  %23 = getelementptr inbounds nuw %struct._connParams, ptr %22, i32 0, i32 0
  store ptr @.str.10, ptr %23, align 8
  %24 = load ptr, ptr %5, align 8
  %25 = load ptr, ptr %6, align 8
  %26 = load i8, ptr %7, align 1, !range !4, !noundef !5
  %27 = trunc i8 %26 to i1
  %28 = call ptr @connectDatabase(ptr noundef %24, ptr noundef %25, i1 noundef zeroext %27, i1 noundef zeroext true, i1 noundef zeroext false)
  store ptr %28, ptr %8, align 8
  %29 = load ptr, ptr %8, align 8
  %30 = icmp ne ptr %29, null
  br i1 %30, label %39, label %31

31:                                               ; preds = %21
  %32 = load ptr, ptr %5, align 8
  %33 = getelementptr inbounds nuw %struct._connParams, ptr %32, i32 0, i32 0
  store ptr @.str.11, ptr %33, align 8
  %34 = load ptr, ptr %5, align 8
  %35 = load ptr, ptr %6, align 8
  %36 = load i8, ptr %7, align 1, !range !4, !noundef !5
  %37 = trunc i8 %36 to i1
  %38 = call ptr @connectDatabase(ptr noundef %34, ptr noundef %35, i1 noundef zeroext %37, i1 noundef zeroext false, i1 noundef zeroext false)
  store ptr %38, ptr %8, align 8
  br label %39

39:                                               ; preds = %31, %21
  %40 = load ptr, ptr %8, align 8
  store ptr %40, ptr %4, align 8
  store i32 1, ptr %9, align 4
  br label %41

41:                                               ; preds = %39, %15
  call void @llvm.lifetime.end.p0(i64 8, ptr %8) #5
  %42 = load ptr, ptr %4, align 8
  ret ptr %42
}