; Function Attrs: nounwind uwtable
define dso_local ptr @connectMaintenanceDatabase(ptr noundef captures(none) %0, ptr noundef %1, i1 noundef zeroext %2) local_unnamed_addr #0 {
  %4 = load ptr, ptr %0, align 8
  %.not = icmp eq ptr %4, null
  br i1 %.not, label %5, label %.sink.split

5:                                                ; preds = %3
  store ptr @.str.10, ptr %0, align 8
  %6 = tail call ptr @connectDatabase(ptr noundef nonnull %0, ptr noundef %1, i1 noundef zeroext %2, i1 noundef zeroext true, i1 noundef zeroext false)
  %.not16 = icmp eq ptr %6, null
  br i1 %.not16, label %7, label %9

7:                                                ; preds = %5
  store ptr @.str.11, ptr %0, align 8
  br label %.sink.split

.sink.split:                                      ; preds = %3, %7
  %8 = tail call ptr @connectDatabase(ptr noundef nonnull %0, ptr noundef %1, i1 noundef zeroext %2, i1 noundef zeroext false, i1 noundef zeroext false)
  br label %9

9:                                                ; preds = %.sink.split, %5
  %.014 = phi ptr [ %6, %5 ], [ %8, %.sink.split ]
  ret ptr %.014
}